target datalayout = "e-m:e-p270:32:32-p271:32:32-p272:64:64-i64:64-i128:128-f80:128-n8:16:32:64-S128"
target triple = "x86_64-pc-linux-gnu"

%"class.gmx::AwhDimParams" = type { i32, i32, double, double, double, double, double, double, double }
%class.anon.10 = type { i8 }

@.str.38 = private unnamed_addr constant [140 x i8] c"generated/home/dtcxzyw/WorkSpace/Projects/compilers/llvm-opt-benchmark/bench/gromacs/gromacs/src/gromacs/applied_forces/awh/read_params.cpp\00", align 1
@.str.39 = private unnamed_addr constant [23 x i8] c"!serializer->reading()\00", align 1
@.str.40 = private unnamed_addr constant [57 x i8] c"Can not use reading serializer for writing datastructure\00", align 1
@"__PRETTY_FUNCTION__._ZZN3gmx12AwhDimParams9serializeEPNS_11ISerializerEENK3$_0clEv" = private unnamed_addr constant [88 x i8] c"auto gmx::AwhDimParams::serialize(ISerializer *)::(anonymous class)::operator()() const\00", align 1

; Function Attrs: mustprogress uwtable
define linkonce_odr void @_ZN3gmx11ISerializer11doEnumAsIntINS_25AwhCoordinateProviderTypeEEEvPT_(ptr noundef nonnull align 8 dereferenceable(8) %0, ptr noundef %1) #2 comdat align 2 {
  %3 = alloca ptr, align 8
  %4 = alloca ptr, align 8
  %5 = alloca i32, align 4
  store ptr %0, ptr %3, align 8
  store ptr %1, ptr %4, align 8
  %6 = load ptr, ptr %3, align 8
  %7 = load ptr, ptr %4, align 8
  %8 = load i32, ptr %7, align 4
  store i32 %8, ptr %5, align 4
  %9 = load ptr, ptr %6, align 8
  %10 = getelementptr inbounds ptr, ptr %9, i64 7
  %11 = load ptr, ptr %10, align 8
  call void %11(ptr noundef nonnull align 8 dereferenceable(8) %6, ptr noundef %5)
  %12 = load i32, ptr %5, align 4
  %13 = load ptr, ptr %4, align 8
  store i32 %12, ptr %13, align 4
  ret void
}

; Function Attrs: mustprogress uwtable
define internal void @"_ZZN3gmx12AwhDimParams9serializeEPNS_11ISerializerEENK3$_0clEv"(ptr noundef nonnull align 1 dereferenceable(1) %0) #2 align 2 {
  %2 = alloca ptr, align 8
  store ptr %0, ptr %2, align 8
  call void @_ZN3gmx8internal13assertHandlerEPKcS2_S2_S2_i(ptr noundef @.str.39, ptr noundef @.str.40, ptr noundef @"__PRETTY_FUNCTION__._ZZN3gmx12AwhDimParams9serializeEPNS_11ISerializerEENK3$_0clEv", ptr noundef @.str.38, i32 noundef 739) #12
  unreachable
}

; Function Attrs: mustprogress uwtable
define void @_ZN3gmx12AwhDimParams9serializeEPNS_11ISerializerE(ptr noundef nonnull align 8 dereferenceable(64) %0, ptr noundef %1) #2 align 2 {
  %3 = alloca ptr, align 8
  %4 = alloca ptr, align 8
  %5 = alloca %class.anon.10, align 1
  store ptr %0, ptr %3, align 8
  store ptr %1, ptr %4, align 8
  %6 = load ptr, ptr %3, align 8
  %7 = load ptr, ptr %4, align 8
  %8 = load ptr, ptr %7, align 8
  %9 = getelementptr inbounds ptr, ptr %8, i64 2
  %10 = load ptr, ptr %9, align 8
  %11 = call noundef zeroext i1 %10(ptr noundef nonnull align 8 dereferenceable(8) %7)
  br i1 %11, label %13, label %12

12:                                               ; preds = %2
  br label %14

13:                                               ; preds = %2
  call void @"_ZZN3gmx12AwhDimParams9serializeEPNS_11ISerializerEENK3$_0clEv"(ptr noundef nonnull align 1 dereferenceable(1) %5)
  br label %14

14:                                               ; preds = %13, %12
  %15 = load ptr, ptr %4, align 8
  %16 = getelementptr inbounds %"class.gmx::AwhDimParams", ptr %6, i32 0, i32 0
  call void @_ZN3gmx11ISerializer11doEnumAsIntINS_25AwhCoordinateProviderTypeEEEvPT_(ptr noundef nonnull align 8 dereferenceable(8) %15, ptr noundef %16)
  %17 = load ptr, ptr %4, align 8
  %18 = getelementptr inbounds %"class.gmx::AwhDimParams", ptr %6, i32 0, i32 1
  %19 = load ptr, ptr %17, align 8
  %20 = getelementptr inbounds ptr, ptr %19, i64 7
  %21 = load ptr, ptr %20, align 8
  call void %21(ptr noundef nonnull align 8 dereferenceable(8) %17, ptr noundef %18)
  %22 = load ptr, ptr %4, align 8
  %23 = getelementptr inbounds %"class.gmx::AwhDimParams", ptr %6, i32 0, i32 2
  %24 = load ptr, ptr %22, align 8
  %25 = getelementptr inbounds ptr, ptr %24, i64 11
  %26 = load ptr, ptr %25, align 8
  call void %26(ptr noundef nonnull align 8 dereferenceable(8) %22, ptr noundef %23)
  %27 = load ptr, ptr %4, align 8
  %28 = getelementptr inbounds %"class.gmx::AwhDimParams", ptr %6, i32 0, i32 3
  %29 = load ptr, ptr %27, align 8
  %30 = getelementptr inbounds ptr, ptr %29, i64 11
  %31 = load ptr, ptr %30, align 8
  call void %31(ptr noundef nonnull align 8 dereferenceable(8) %27, ptr noundef %28)
  %32 = load ptr, ptr %4, align 8
  %33 = getelementptr inbounds %"class.gmx::AwhDimParams", ptr %6, i32 0, i32 4
  %34 = load ptr, ptr %32, align 8
  %35 = getelementptr inbounds ptr, ptr %34, i64 11
  %36 = load ptr, ptr %35, align 8
  call void %36(ptr noundef nonnull align 8 dereferenceable(8) %32, ptr noundef %33)
  %37 = load ptr, ptr %4, align 8
  %38 = getelementptr inbounds %"class.gmx::AwhDimParams", ptr %6, i32 0, i32 5
  %39 = load ptr, ptr %37, align 8
  %40 = getelementptr inbounds ptr, ptr %39, i64 11
  %41 = load ptr, ptr %40, align 8
  call void %41(ptr noundef nonnull align 8 dereferenceable(8) %37, ptr noundef %38)
  %42 = load ptr, ptr %4, align 8
  %43 = getelementptr inbounds %"class.gmx::AwhDimParams", ptr %6, i32 0, i32 6
  %44 = load ptr, ptr %42, align 8
  %45 = getelementptr inbounds ptr, ptr %44, i64 11
  %46 = load ptr, ptr %45, align 8
  call void %46(ptr noundef nonnull align 8 dereferenceable(8) %42, ptr noundef %43)
  %47 = load ptr, ptr %4, align 8
  %48 = getelementptr inbounds %"class.gmx::AwhDimParams", ptr %6, i32 0, i32 7
  %49 = load ptr, ptr %47, align 8
  %50 = getelementptr inbounds ptr, ptr %49, i64 11
  %51 = load ptr, ptr %50, align 8
  call void %51(ptr noundef nonnull align 8 dereferenceable(8) %47, ptr noundef %48)
  %52 = load ptr, ptr %4, align 8
  %53 = getelementptr inbounds %"class.gmx::AwhDimParams", ptr %6, i32 0, i32 8
  %54 = load ptr, ptr %52, align 8
  %55 = getelementptr inbounds ptr, ptr %54, i64 11
  %56 = load ptr, ptr %55, align 8
  call void %56(ptr noundef nonnull align 8 dereferenceable(8) %52, ptr noundef %53)
  ret void
}