; Function Attrs: mustprogress uwtable
define void @_ZN3gmx12AwhDimParams9serializeEPNS_11ISerializerE(ptr noundef nonnull align 8 dereferenceable(64) %0, ptr noundef %1) local_unnamed_addr #4 align 2 {
  %3 = alloca i32, align 4
  %4 = load ptr, ptr %1, align 8
  %5 = getelementptr inbounds i8, ptr %4, i64 16
  %6 = load ptr, ptr %5, align 8
  %7 = tail call noundef zeroext i1 %6(ptr noundef nonnull align 8 dereferenceable(8) %1)
  br i1 %7, label %8, label %9

8:                                                ; preds = %2
  tail call void @_ZN3gmx8internal13assertHandlerEPKcS2_S2_S2_i(ptr noundef nonnull @.str.39, ptr noundef nonnull @.str.40, ptr noundef nonnull @"__PRETTY_FUNCTION__._ZZN3gmx12AwhDimParams9serializeEPNS_11ISerializerEENK3$_0clEv", ptr noundef nonnull @.str.38, i32 noundef 739) #23
  unreachable

9:                                                ; preds = %2
  call void @llvm.lifetime.start.p0(i64 4, ptr nonnull %3)
  %10 = load i32, ptr %0, align 8
  store i32 %10, ptr %3, align 4
  %11 = load ptr, ptr %1, align 8
  %12 = getelementptr inbounds i8, ptr %11, i64 56
  %13 = load ptr, ptr %12, align 8
  call void %13(ptr noundef nonnull align 8 dereferenceable(8) %1, ptr noundef nonnull %3)
  %14 = load i32, ptr %3, align 4
  store i32 %14, ptr %0, align 8
  call void @llvm.lifetime.end.p0(i64 4, ptr nonnull %3)
  %15 = getelementptr inbounds i8, ptr %0, i64 4
  %16 = load ptr, ptr %1, align 8
  %17 = getelementptr inbounds i8, ptr %16, i64 56
  %18 = load ptr, ptr %17, align 8
  call void %18(ptr noundef nonnull align 8 dereferenceable(8) %1, ptr noundef nonnull %15)
  %19 = getelementptr inbounds i8, ptr %0, i64 8
  %20 = load ptr, ptr %1, align 8
  %21 = getelementptr inbounds i8, ptr %20, i64 88
  %22 = load ptr, ptr %21, align 8
  call void %22(ptr noundef nonnull align 8 dereferenceable(8) %1, ptr noundef nonnull %19)
  %23 = getelementptr inbounds i8, ptr %0, i64 16
  %24 = load ptr, ptr %1, align 8
  %25 = getelementptr inbounds i8, ptr %24, i64 88
  %26 = load ptr, ptr %25, align 8
  call void %26(ptr noundef nonnull align 8 dereferenceable(8) %1, ptr noundef nonnull %23)
  %27 = getelementptr inbounds i8, ptr %0, i64 24
  %28 = load ptr, ptr %1, align 8
  %29 = getelementptr inbounds i8, ptr %28, i64 88
  %30 = load ptr, ptr %29, align 8
  call void %30(ptr noundef nonnull align 8 dereferenceable(8) %1, ptr noundef nonnull %27)
  %31 = getelementptr inbounds i8, ptr %0, i64 32
  %32 = load ptr, ptr %1, align 8
  %33 = getelementptr inbounds i8, ptr %32, i64 88
  %34 = load ptr, ptr %33, align 8
  call void %34(ptr noundef nonnull align 8 dereferenceable(8) %1, ptr noundef nonnull %31)
  %35 = getelementptr inbounds i8, ptr %0, i64 40
  %36 = load ptr, ptr %1, align 8
  %37 = getelementptr inbounds i8, ptr %36, i64 88
  %38 = load ptr, ptr %37, align 8
  call void %38(ptr noundef nonnull align 8 dereferenceable(8) %1, ptr noundef nonnull %35)
  %39 = getelementptr inbounds i8, ptr %0, i64 48
  %40 = load ptr, ptr %1, align 8
  %41 = getelementptr inbounds i8, ptr %40, i64 88
  %42 = load ptr, ptr %41, align 8
  call void %42(ptr noundef nonnull align 8 dereferenceable(8) %1, ptr noundef nonnull %39)
  %43 = getelementptr inbounds i8, ptr %0, i64 56
  %44 = load ptr, ptr %1, align 8
  %45 = getelementptr inbounds i8, ptr %44, i64 88
  %46 = load ptr, ptr %45, align 8
  call void %46(ptr noundef nonnull align 8 dereferenceable(8) %1, ptr noundef nonnull %43)
  ret void
}